target datalayout = "e-m:e-p270:32:32-p271:32:32-p272:64:64-i64:64-i128:128-f80:128-n8:16:32:64-S128"
target triple = "x86_64-pc-linux-gnu"

; Function Attrs: inlinehint nounwind uwtable
define internal i32 @mbedtls_ct_uint_if_else_0(i64 noundef %0, i32 noundef %1) #2 {
  %3 = alloca i64, align 8
  %4 = alloca i32, align 4
  store i64 %0, ptr %3, align 8, !tbaa !7
  store i32 %1, ptr %4, align 4, !tbaa !11
  %5 = load i64, ptr %3, align 8, !tbaa !7
  %6 = load i32, ptr %4, align 4, !tbaa !11
  %7 = zext i32 %6 to i64
  %8 = and i64 %5, %7
  %9 = trunc i64 %8 to i32
  ret i32 %9
}

; Function Attrs: inlinehint nounwind uwtable
define internal i64 @mbedtls_ct_bool_and(i64 noundef %0, i64 noundef %1) #2 {
  %3 = alloca i64, align 8
  %4 = alloca i64, align 8
  store i64 %0, ptr %3, align 8, !tbaa !7
  store i64 %1, ptr %4, align 8, !tbaa !7
  %5 = load i64, ptr %3, align 8, !tbaa !7
  %6 = load i64, ptr %4, align 8, !tbaa !7
  %7 = and i64 %5, %6
  ret i64 %7
}

; Function Attrs: inlinehint nounwind uwtable
define internal i64 @mbedtls_ct_uint_lt(i64 noundef %0, i64 noundef %1) #2 {
  %3 = alloca i64, align 8
  %4 = alloca i64, align 8
  %5 = alloca i64, align 8
  store i64 %0, ptr %3, align 8, !tbaa !7
  store i64 %1, ptr %4, align 8, !tbaa !7
  call void @llvm.lifetime.start.p0(i64 8, ptr %5) #5
  %6 = load i64, ptr %3, align 8, !tbaa !7
  %7 = load i64, ptr %4, align 8, !tbaa !7
  %8 = call { i64, i64, i64 } asm sideeffect "mov $1, $0                                 \0A\09xor $2, $0                                 \0A\09sub $2, $1                                 \0A\09and $0, $2                                 \0A\09not $0                                       \0A\09and $0, $1                                 \0A\09or $2, $1                                  \0A\09sar $$63, $1                                  \0A\09", "=&{ax},=&{di},=&{si},1,2,~{dirflag},~{fpsr},~{flags}"(i64 %6, i64 %7) #5, !srcloc !17
  %9 = extractvalue { i64, i64, i64 } %8, 0
  %10 = extractvalue { i64, i64, i64 } %8, 1
  %11 = extractvalue { i64, i64, i64 } %8, 2
  store i64 %9, ptr %5, align 8, !tbaa !7
  store i64 %10, ptr %3, align 8, !tbaa !7
  store i64 %11, ptr %4, align 8, !tbaa !7
  %12 = load i64, ptr %3, align 8, !tbaa !7
  call void @llvm.lifetime.end.p0(i64 8, ptr %5) #5
  ret i64 %12
}

; Function Attrs: inlinehint nounwind uwtable
define internal i64 @mbedtls_ct_uint_ge(i64 noundef %0, i64 noundef %1) #2 {
  %3 = alloca i64, align 8
  %4 = alloca i64, align 8
  store i64 %0, ptr %3, align 8, !tbaa !7
  store i64 %1, ptr %4, align 8, !tbaa !7
  %5 = load i64, ptr %3, align 8, !tbaa !7
  %6 = load i64, ptr %4, align 8, !tbaa !7
  %7 = call i64 @mbedtls_ct_uint_lt(i64 noundef %5, i64 noundef %6)
  %8 = xor i64 %7, -1
  ret i64 %8
}

; Function Attrs: nounwind uwtable
define hidden i32 @mbedtls_ct_memcmp_partial(ptr noundef %0, ptr noundef %1, i64 noundef %2, i64 noundef %3, i64 noundef %4) #0 {
  %6 = alloca ptr, align 8
  %7 = alloca ptr, align 8
  %8 = alloca i64, align 8
  %9 = alloca i64, align 8
  %10 = alloca i64, align 8
  %11 = alloca i32, align 4
  %12 = alloca ptr, align 8
  %13 = alloca ptr, align 8
  %14 = alloca i64, align 8
  %15 = alloca i64, align 8
  %16 = alloca i8, align 1
  %17 = alloca i8, align 1
  %18 = alloca i32, align 4
  %19 = alloca i64, align 8
  store ptr %0, ptr %6, align 8, !tbaa !3
  store ptr %1, ptr %7, align 8, !tbaa !3
  store i64 %2, ptr %8, align 8, !tbaa !7
  store i64 %3, ptr %9, align 8, !tbaa !7
  store i64 %4, ptr %10, align 8, !tbaa !7
  call void @llvm.lifetime.start.p0(i64 4, ptr %11) #5
  store i32 0, ptr %11, align 4, !tbaa !11
  call void @llvm.lifetime.start.p0(i64 8, ptr %12) #5
  %20 = load ptr, ptr %6, align 8, !tbaa !3
  store ptr %20, ptr %12, align 8, !tbaa !9
  call void @llvm.lifetime.start.p0(i64 8, ptr %13) #5
  %21 = load ptr, ptr %7, align 8, !tbaa !3
  store ptr %21, ptr %13, align 8, !tbaa !9
  call void @llvm.lifetime.start.p0(i64 8, ptr %14) #5
  %22 = load i64, ptr %8, align 8, !tbaa !7
  %23 = load i64, ptr %10, align 8, !tbaa !7
  %24 = sub i64 %22, %23
  store i64 %24, ptr %14, align 8, !tbaa !7
  call void @llvm.lifetime.start.p0(i64 8, ptr %15) #5
  store i64 0, ptr %15, align 8, !tbaa !7
  br label %25

25:                                               ; preds = %56, %5
  %26 = load i64, ptr %15, align 8, !tbaa !7
  %27 = load i64, ptr %8, align 8, !tbaa !7
  %28 = icmp ult i64 %26, %27
  br i1 %28, label %30, label %29

29:                                               ; preds = %25
  call void @llvm.lifetime.end.p0(i64 8, ptr %15) #5
  br label %59

30:                                               ; preds = %25
  call void @llvm.lifetime.start.p0(i64 1, ptr %16) #5
  %31 = load ptr, ptr %12, align 8, !tbaa !9
  %32 = load i64, ptr %15, align 8, !tbaa !7
  %33 = getelementptr inbounds nuw i8, ptr %31, i64 %32
  %34 = load volatile i8, ptr %33, align 1, !tbaa !13
  store i8 %34, ptr %16, align 1, !tbaa !13
  call void @llvm.lifetime.start.p0(i64 1, ptr %17) #5
  %35 = load ptr, ptr %13, align 8, !tbaa !9
  %36 = load i64, ptr %15, align 8, !tbaa !7
  %37 = getelementptr inbounds nuw i8, ptr %35, i64 %36
  %38 = load volatile i8, ptr %37, align 1, !tbaa !13
  store i8 %38, ptr %17, align 1, !tbaa !13
  call void @llvm.lifetime.start.p0(i64 4, ptr %18) #5
  %39 = load i8, ptr %16, align 1, !tbaa !13
  %40 = zext i8 %39 to i32
  %41 = load i8, ptr %17, align 1, !tbaa !13
  %42 = zext i8 %41 to i32
  %43 = xor i32 %40, %42
  store i32 %43, ptr %18, align 4, !tbaa !11
  call void @llvm.lifetime.start.p0(i64 8, ptr %19) #5
  %44 = load i64, ptr %15, align 8, !tbaa !7
  %45 = load i64, ptr %9, align 8, !tbaa !7
  %46 = call i64 @mbedtls_ct_uint_ge(i64 noundef %44, i64 noundef %45)
  %47 = load i64, ptr %15, align 8, !tbaa !7
  %48 = load i64, ptr %14, align 8, !tbaa !7
  %49 = call i64 @mbedtls_ct_uint_lt(i64 noundef %47, i64 noundef %48)
  %50 = call i64 @mbedtls_ct_bool_and(i64 noundef %46, i64 noundef %49)
  store i64 %50, ptr %19, align 8, !tbaa !7
  %51 = load i64, ptr %19, align 8, !tbaa !7
  %52 = load i32, ptr %18, align 4, !tbaa !11
  %53 = call i32 @mbedtls_ct_uint_if_else_0(i64 noundef %51, i32 noundef %52)
  %54 = load i32, ptr %11, align 4, !tbaa !11
  %55 = or i32 %54, %53
  store i32 %55, ptr %11, align 4, !tbaa !11
  call void @llvm.lifetime.end.p0(i64 8, ptr %19) #5
  call void @llvm.lifetime.end.p0(i64 4, ptr %18) #5
  call void @llvm.lifetime.end.p0(i64 1, ptr %17) #5
  call void @llvm.lifetime.end.p0(i64 1, ptr %16) #5
  br label %56

56:                                               ; preds = %30
  %57 = load i64, ptr %15, align 8, !tbaa !7
  %58 = add i64 %57, 1
  store i64 %58, ptr %15, align 8, !tbaa !7
  br label %25, !llvm.loop !16

59:                                               ; preds = %29
  %60 = load i32, ptr %11, align 4, !tbaa !11
  call void @llvm.lifetime.end.p0(i64 8, ptr %14) #5
  call void @llvm.lifetime.end.p0(i64 8, ptr %13) #5
  call void @llvm.lifetime.end.p0(i64 8, ptr %12) #5
  call void @llvm.lifetime.end.p0(i64 4, ptr %11) #5
  ret i32 %60
}