; Function Attrs: nounwind uwtable
define hidden range(i32 0, 256) i32 @mbedtls_ct_memcmp_partial(ptr noundef %0, ptr noundef %1, i64 noundef %2, i64 noundef %3, i64 noundef %4) local_unnamed_addr #1 {
  %6 = sub i64 %2, %4
  %.not = icmp eq i64 %2, 0
  br i1 %.not, label %._crit_edge, label %.lr.ph

._crit_edge:                                      ; preds = %.lr.ph, %5
  %.0.lcssa = phi i32 [ 0, %5 ], [ %21, %.lr.ph ]
  ret i32 %.0.lcssa

.lr.ph:                                           ; preds = %5, %.lr.ph
  %.022 = phi i32 [ %21, %.lr.ph ], [ 0, %5 ]
  %.02021 = phi i64 [ %22, %.lr.ph ], [ 0, %5 ]
  %7 = getelementptr inbounds nuw i8, ptr %0, i64 %.02021
  %8 = load volatile i8, ptr %7, align 1, !tbaa !3
  %9 = getelementptr inbounds nuw i8, ptr %1, i64 %.02021
  %10 = load volatile i8, ptr %9, align 1, !tbaa !3
  %11 = xor i8 %10, %8
  %12 = zext i8 %11 to i32
  %13 = tail call { i64, i64, i64 } asm sideeffect "mov $1, $0                                 \0A\09xor $2, $0                                 \0A\09sub $2, $1                                 \0A\09and $0, $2                                 \0A\09not $0                                       \0A\09and $0, $1                                 \0A\09or $2, $1                                  \0A\09sar $$63, $1                                  \0A\09", "=&{ax},=&{di},=&{si},1,2,~{dirflag},~{fpsr},~{flags}"(i64 %.02021, i64 %3) #3, !srcloc !8
  %14 = extractvalue { i64, i64, i64 } %13, 1
  %15 = xor i64 %14, -1
  %16 = tail call { i64, i64, i64 } asm sideeffect "mov $1, $0                                 \0A\09xor $2, $0                                 \0A\09sub $2, $1                                 \0A\09and $0, $2                                 \0A\09not $0                                       \0A\09and $0, $1                                 \0A\09or $2, $1                                  \0A\09sar $$63, $1                                  \0A\09", "=&{ax},=&{di},=&{si},1,2,~{dirflag},~{fpsr},~{flags}"(i64 %.02021, i64 %6) #3, !srcloc !8
  %17 = extractvalue { i64, i64, i64 } %16, 1
  %18 = and i64 %17, %15
  %19 = trunc i64 %18 to i32
  %20 = and i32 %19, %12
  %21 = or i32 %20, %.022
  %22 = add nuw i64 %.02021, 1
  %exitcond.not = icmp eq i64 %22, %2
  br i1 %exitcond.not, label %._crit_edge, label %.lr.ph, !llvm.loop !9
}